target datalayout = "e-m:e-p270:32:32-p271:32:32-p272:64:64-i64:64-i128:128-f80:128-n8:16:32:64-S128"
target triple = "x86_64-pc-linux-gnu"

; Function Attrs: nounwind uwtable
define internal void @fweight_row16_serial(ptr noundef %0, ptr noundef %1, ptr noundef %2, i32 noundef %3, i32 noundef %4, i32 noundef %5, i32 noundef %6, i32 noundef %7, ptr noundef %8) #1 {
  %10 = alloca ptr, align 8
  %11 = alloca ptr, align 8
  %12 = alloca ptr, align 8
  %13 = alloca i32, align 4
  %14 = alloca i32, align 4
  %15 = alloca i32, align 4
  %16 = alloca i32, align 4
  %17 = alloca i32, align 4
  %18 = alloca ptr, align 8
  %19 = alloca ptr, align 8
  %20 = alloca ptr, align 8
  %21 = alloca ptr, align 8
  %22 = alloca i32, align 4
  %23 = alloca i32, align 4
  %24 = alloca i32, align 4
  %25 = alloca i32, align 4
  %26 = alloca i32, align 4
  %27 = alloca i32, align 4
  %28 = alloca i32, align 4
  %29 = alloca float, align 4
  %30 = alloca float, align 4
  %31 = alloca i32, align 4
  %32 = alloca i32, align 4
  %33 = alloca i32, align 4
  %34 = alloca i32, align 4
  store ptr %0, ptr %10, align 8, !tbaa !31
  store ptr %1, ptr %11, align 8, !tbaa !31
  store ptr %2, ptr %12, align 8, !tbaa !85
  store i32 %3, ptr %13, align 4, !tbaa !32
  store i32 %4, ptr %14, align 4, !tbaa !32
  store i32 %5, ptr %15, align 4, !tbaa !32
  store i32 %6, ptr %16, align 4, !tbaa !32
  store i32 %7, ptr %17, align 4, !tbaa !32
  store ptr %8, ptr %18, align 8, !tbaa !83
  call void @llvm.lifetime.start.p0(i64 8, ptr %19) #9
  %35 = load ptr, ptr %10, align 8, !tbaa !31
  store ptr %35, ptr %19, align 8, !tbaa !100
  call void @llvm.lifetime.start.p0(i64 8, ptr %20) #9
  %36 = load ptr, ptr %12, align 8, !tbaa !85
  store ptr %36, ptr %20, align 8, !tbaa !102
  call void @llvm.lifetime.start.p0(i64 8, ptr %21) #9
  %37 = load ptr, ptr %11, align 8, !tbaa !31
  store ptr %37, ptr %21, align 8, !tbaa !100
  call void @llvm.lifetime.start.p0(i64 4, ptr %22) #9
  store i32 0, ptr %22, align 4, !tbaa !32
  br label %38

38:                                               ; preds = %192, %9
  %39 = load i32, ptr %22, align 4, !tbaa !32
  %40 = load i32, ptr %13, align 4, !tbaa !32
  %41 = icmp slt i32 %39, %40
  br i1 %41, label %43, label %42

42:                                               ; preds = %38
  store i32 2, ptr %23, align 4
  call void @llvm.lifetime.end.p0(i64 4, ptr %22) #9
  br label %195

43:                                               ; preds = %38
  call void @llvm.lifetime.start.p0(i64 4, ptr %24) #9
  %44 = load ptr, ptr %19, align 8, !tbaa !100
  %45 = load i32, ptr %22, align 4, !tbaa !32
  %46 = sext i32 %45 to i64
  %47 = getelementptr inbounds i16, ptr %44, i64 %46
  %48 = load i16, ptr %47, align 2, !tbaa !104
  %49 = zext i16 %48 to i32
  store i32 %49, ptr %24, align 4, !tbaa !32
  call void @llvm.lifetime.start.p0(i64 4, ptr %25) #9
  store i32 0, ptr %25, align 4, !tbaa !32
  call void @llvm.lifetime.start.p0(i64 4, ptr %26) #9
  store i32 0, ptr %26, align 4, !tbaa !32
  call void @llvm.lifetime.start.p0(i64 4, ptr %27) #9
  call void @llvm.lifetime.start.p0(i64 4, ptr %28) #9
  call void @llvm.lifetime.start.p0(i64 4, ptr %29) #9
  %50 = load i32, ptr %24, align 4, !tbaa !32
  %51 = sitofp i32 %50 to float
  store float %51, ptr %29, align 4, !tbaa !71
  call void @llvm.lifetime.start.p0(i64 4, ptr %30) #9
  store float 1.000000e+00, ptr %30, align 4, !tbaa !71
  call void @llvm.lifetime.start.p0(i64 4, ptr %31) #9
  call void @llvm.lifetime.start.p0(i64 4, ptr %32) #9
  call void @llvm.lifetime.start.p0(i64 4, ptr %33) #9
  %52 = load i32, ptr %14, align 4, !tbaa !32
  %53 = sub nsw i32 %52, 1
  store i32 %53, ptr %33, align 4, !tbaa !32
  br label %54

54:                                               ; preds = %112, %43
  %55 = load i32, ptr %33, align 4, !tbaa !32
  %56 = icmp sge i32 %55, 0
  br i1 %56, label %58, label %57

57:                                               ; preds = %54
  store i32 5, ptr %23, align 4
  br label %115

58:                                               ; preds = %54
  %59 = load ptr, ptr %20, align 8, !tbaa !102
  %60 = load i32, ptr %33, align 4, !tbaa !32
  %61 = sext i32 %60 to i64
  %62 = getelementptr inbounds ptr, ptr %59, i64 %61
  %63 = load ptr, ptr %62, align 8, !tbaa !100
  %64 = load i32, ptr %22, align 4, !tbaa !32
  %65 = sext i32 %64 to i64
  %66 = getelementptr inbounds i16, ptr %63, i64 %65
  %67 = load i16, ptr %66, align 2, !tbaa !104
  %68 = zext i16 %67 to i32
  store i32 %68, ptr %31, align 4, !tbaa !32
  %69 = load i32, ptr %24, align 4, !tbaa !32
  %70 = load i32, ptr %31, align 4, !tbaa !32
  %71 = sub nsw i32 %69, %70
  %72 = icmp sge i32 %71, 0
  br i1 %72, label %73, label %77

73:                                               ; preds = %58
  %74 = load i32, ptr %24, align 4, !tbaa !32
  %75 = load i32, ptr %31, align 4, !tbaa !32
  %76 = sub nsw i32 %74, %75
  br label %82

77:                                               ; preds = %58
  %78 = load i32, ptr %24, align 4, !tbaa !32
  %79 = load i32, ptr %31, align 4, !tbaa !32
  %80 = sub nsw i32 %78, %79
  %81 = sub nsw i32 0, %80
  br label %82

82:                                               ; preds = %77, %73
  %83 = phi i32 [ %76, %73 ], [ %81, %77 ]
  store i32 %83, ptr %27, align 4, !tbaa !32
  %84 = load i32, ptr %27, align 4, !tbaa !32
  %85 = load i32, ptr %25, align 4, !tbaa !32
  %86 = add i32 %85, %84
  store i32 %86, ptr %25, align 4, !tbaa !32
  %87 = load i32, ptr %27, align 4, !tbaa !32
  %88 = load i32, ptr %16, align 4, !tbaa !32
  %89 = icmp ugt i32 %87, %88
  br i1 %89, label %94, label %90

90:                                               ; preds = %82
  %91 = load i32, ptr %25, align 4, !tbaa !32
  %92 = load i32, ptr %17, align 4, !tbaa !32
  %93 = icmp ugt i32 %91, %92
  br i1 %93, label %94, label %95

94:                                               ; preds = %90, %82
  store i32 5, ptr %23, align 4
  br label %115

95:                                               ; preds = %90
  %96 = load i32, ptr %31, align 4, !tbaa !32
  %97 = sitofp i32 %96 to float
  %98 = load ptr, ptr %18, align 8, !tbaa !83
  %99 = load i32, ptr %33, align 4, !tbaa !32
  %100 = sext i32 %99 to i64
  %101 = getelementptr inbounds float, ptr %98, i64 %100
  %102 = load float, ptr %101, align 4, !tbaa !71
  %103 = load float, ptr %29, align 4, !tbaa !71
  %104 = call nsz float @llvm.fmuladd.f32(float %97, float %102, float %103)
  store float %104, ptr %29, align 4, !tbaa !71
  %105 = load ptr, ptr %18, align 8, !tbaa !83
  %106 = load i32, ptr %33, align 4, !tbaa !32
  %107 = sext i32 %106 to i64
  %108 = getelementptr inbounds float, ptr %105, i64 %107
  %109 = load float, ptr %108, align 4, !tbaa !71
  %110 = load float, ptr %30, align 4, !tbaa !71
  %111 = fadd nsz float %110, %109
  store float %111, ptr %30, align 4, !tbaa !71
  br label %112

112:                                              ; preds = %95
  %113 = load i32, ptr %33, align 4, !tbaa !32
  %114 = add nsw i32 %113, -1
  store i32 %114, ptr %33, align 4, !tbaa !32
  br label %54, !llvm.loop !117

115:                                              ; preds = %94, %57
  call void @llvm.lifetime.end.p0(i64 4, ptr %33) #9
  br label %116

116:                                              ; preds = %115
  call void @llvm.lifetime.start.p0(i64 4, ptr %34) #9
  %117 = load i32, ptr %14, align 4, !tbaa !32
  %118 = add nsw i32 %117, 1
  store i32 %118, ptr %34, align 4, !tbaa !32
  br label %119

119:                                              ; preds = %178, %116
  %120 = load i32, ptr %34, align 4, !tbaa !32
  %121 = load i32, ptr %15, align 4, !tbaa !32
  %122 = icmp slt i32 %120, %121
  br i1 %122, label %124, label %123

123:                                              ; preds = %119
  store i32 8, ptr %23, align 4
  br label %181

124:                                              ; preds = %119
  %125 = load ptr, ptr %20, align 8, !tbaa !102
  %126 = load i32, ptr %34, align 4, !tbaa !32
  %127 = sext i32 %126 to i64
  %128 = getelementptr inbounds ptr, ptr %125, i64 %127
  %129 = load ptr, ptr %128, align 8, !tbaa !100
  %130 = load i32, ptr %22, align 4, !tbaa !32
  %131 = sext i32 %130 to i64
  %132 = getelementptr inbounds i16, ptr %129, i64 %131
  %133 = load i16, ptr %132, align 2, !tbaa !104
  %134 = zext i16 %133 to i32
  store i32 %134, ptr %32, align 4, !tbaa !32
  %135 = load i32, ptr %24, align 4, !tbaa !32
  %136 = load i32, ptr %32, align 4, !tbaa !32
  %137 = sub nsw i32 %135, %136
  %138 = icmp sge i32 %137, 0
  br i1 %138, label %139, label %143

139:                                              ; preds = %124
  %140 = load i32, ptr %24, align 4, !tbaa !32
  %141 = load i32, ptr %32, align 4, !tbaa !32
  %142 = sub nsw i32 %140, %141
  br label %148

143:                                              ; preds = %124
  %144 = load i32, ptr %24, align 4, !tbaa !32
  %145 = load i32, ptr %32, align 4, !tbaa !32
  %146 = sub nsw i32 %144, %145
  %147 = sub nsw i32 0, %146
  br label %148

148:                                              ; preds = %143, %139
  %149 = phi i32 [ %142, %139 ], [ %147, %143 ]
  store i32 %149, ptr %28, align 4, !tbaa !32
  %150 = load i32, ptr %28, align 4, !tbaa !32
  %151 = load i32, ptr %26, align 4, !tbaa !32
  %152 = add i32 %151, %150
  store i32 %152, ptr %26, align 4, !tbaa !32
  %153 = load i32, ptr %28, align 4, !tbaa !32
  %154 = load i32, ptr %16, align 4, !tbaa !32
  %155 = icmp ugt i32 %153, %154
  br i1 %155, label %160, label %156

156:                                              ; preds = %148
  %157 = load i32, ptr %26, align 4, !tbaa !32
  %158 = load i32, ptr %17, align 4, !tbaa !32
  %159 = icmp ugt i32 %157, %158
  br i1 %159, label %160, label %161

160:                                              ; preds = %156, %148
  store i32 8, ptr %23, align 4
  br label %181

161:                                              ; preds = %156
  %162 = load i32, ptr %32, align 4, !tbaa !32
  %163 = sitofp i32 %162 to float
  %164 = load ptr, ptr %18, align 8, !tbaa !83
  %165 = load i32, ptr %34, align 4, !tbaa !32
  %166 = sext i32 %165 to i64
  %167 = getelementptr inbounds float, ptr %164, i64 %166
  %168 = load float, ptr %167, align 4, !tbaa !71
  %169 = load float, ptr %29, align 4, !tbaa !71
  %170 = call nsz float @llvm.fmuladd.f32(float %163, float %168, float %169)
  store float %170, ptr %29, align 4, !tbaa !71
  %171 = load ptr, ptr %18, align 8, !tbaa !83
  %172 = load i32, ptr %34, align 4, !tbaa !32
  %173 = sext i32 %172 to i64
  %174 = getelementptr inbounds float, ptr %171, i64 %173
  %175 = load float, ptr %174, align 4, !tbaa !71
  %176 = load float, ptr %30, align 4, !tbaa !71
  %177 = fadd nsz float %176, %175
  store float %177, ptr %30, align 4, !tbaa !71
  br label %178

178:                                              ; preds = %161
  %179 = load i32, ptr %34, align 4, !tbaa !32
  %180 = add nsw i32 %179, 1
  store i32 %180, ptr %34, align 4, !tbaa !32
  br label %119, !llvm.loop !118

181:                                              ; preds = %160, %123
  call void @llvm.lifetime.end.p0(i64 4, ptr %34) #9
  br label %182

182:                                              ; preds = %181
  %183 = load float, ptr %29, align 4, !tbaa !71
  %184 = load float, ptr %30, align 4, !tbaa !71
  %185 = fdiv nsz float %183, %184
  %186 = call i64 @llvm.lrint.i64.f32(float %185)
  %187 = trunc i64 %186 to i16
  %188 = load ptr, ptr %21, align 8, !tbaa !100
  %189 = load i32, ptr %22, align 4, !tbaa !32
  %190 = sext i32 %189 to i64
  %191 = getelementptr inbounds i16, ptr %188, i64 %190
  store i16 %187, ptr %191, align 2, !tbaa !104
  call void @llvm.lifetime.end.p0(i64 4, ptr %32) #9
  call void @llvm.lifetime.end.p0(i64 4, ptr %31) #9
  call void @llvm.lifetime.end.p0(i64 4, ptr %30) #9
  call void @llvm.lifetime.end.p0(i64 4, ptr %29) #9
  call void @llvm.lifetime.end.p0(i64 4, ptr %28) #9
  call void @llvm.lifetime.end.p0(i64 4, ptr %27) #9
  call void @llvm.lifetime.end.p0(i64 4, ptr %26) #9
  call void @llvm.lifetime.end.p0(i64 4, ptr %25) #9
  call void @llvm.lifetime.end.p0(i64 4, ptr %24) #9
  br label %192

192:                                              ; preds = %182
  %193 = load i32, ptr %22, align 4, !tbaa !32
  %194 = add nsw i32 %193, 1
  store i32 %194, ptr %22, align 4, !tbaa !32
  br label %38, !llvm.loop !119

195:                                              ; preds = %42
  call void @llvm.lifetime.end.p0(i64 8, ptr %21) #9
  call void @llvm.lifetime.end.p0(i64 8, ptr %20) #9
  call void @llvm.lifetime.end.p0(i64 8, ptr %19) #9
  ret void
}